	.file	"Arduino-usbserial.c"
__SP_H__ = 0x3e
__SP_L__ = 0x3d
__SREG__ = 0x3f
__tmp_reg__ = 0
__zero_reg__ = 1
	.text
.Ltext0:
	.cfi_sections	.debug_frame
	.section	.text.RingBuffer_Remove,"ax",@progbits
	.type	RingBuffer_Remove, @function
RingBuffer_Remove:
.LVL0:
.LFB76:
	.file 1 "Lib/LightweightRingBuff.h"
	.loc 1 183 3 view -0
	.cfi_startproc
/* prologue: function */
/* frame size = 0 */
/* stack size = 0 */
.L__stack_usage = 0
	.loc 1 183 3 is_stmt 0 view .LVU1
	movw r18,r24
	.loc 1 184 4 is_stmt 1 view .LVU2
	.loc 1 184 34 is_stmt 0 view .LVU3
	movw r26,r24
	subi r26,126
	sbci r27,-1
	.loc 1 184 20 view .LVU4
	ld r30,X+
	ld r31,X
	sbiw r26,1
	ld r24,Z+
.LVL1:
	.loc 1 186 4 is_stmt 1 view .LVU5
	.loc 1 186 25 is_stmt 0 view .LVU6
	movw r20,r18
	subi r20,-128
	sbci r21,-1
	.loc 1 186 7 view .LVU7
	cp r30,r20
	cpc r31,r21
	breq .L2
	st X+,r30
	st X,r31
.L3:
	.loc 1 189 4 is_stmt 1 view .LVU8
.LBB34:
	.loc 1 189 4 view .LVU9
	in r20,__SREG__
.LVL2:
.LBB35:
.LBI35:
	.file 2 "/usr/local/Cellar/avr-gcc@9/9.4.0/avr/include/util/atomic.h"
	.loc 2 48 27 view .LVU10
.LBB36:
	.loc 2 50 5 view .LVU11
/* #APP */
 ;  50 "/usr/local/Cellar/avr-gcc@9/9.4.0/avr/include/util/atomic.h" 1
	cli
 ;  0 "" 2
	.loc 2 51 5 view .LVU12
.LVL3:
	.loc 2 51 5 is_stmt 0 view .LVU13
/* #NOAPP */
.LBE36:
.LBE35:
	.loc 1 189 4 is_stmt 1 view .LVU14
	.loc 1 191 5 view .LVU15
	.loc 1 191 18 is_stmt 0 view .LVU16
	movw r30,r18
	subi r30,124
	sbci r31,-1
	ld r25,Z
	subi r25,lo8(-(-1))
	st Z,r25
	.loc 1 189 4 is_stmt 1 view .LVU17
.LVL4:
	.loc 1 189 4 view .LVU18
.LBB37:
.LBI37:
	.loc 2 68 24 view .LVU19
.LBB38:
	.loc 2 70 5 view .LVU20
	.loc 2 70 10 is_stmt 0 view .LVU21
	out __SREG__,r20
	.loc 2 71 5 is_stmt 1 view .LVU22
.LVL5:
	.loc 2 71 5 is_stmt 0 view .LVU23
.LBE38:
.LBE37:
.LBE34:
	.loc 1 194 4 is_stmt 1 view .LVU24
/* epilogue start */
	.loc 1 195 3 is_stmt 0 view .LVU25
	ret
.LVL6:
.L2:
	.loc 1 187 6 is_stmt 1 view .LVU26
	.loc 1 187 18 is_stmt 0 view .LVU27
	st X+,r18
	st X,r19
	rjmp .L3
	.cfi_endproc
.LFE76:
	.size	RingBuffer_Remove, .-RingBuffer_Remove
	.section	.text.SetupHardware,"ax",@progbits
.global	SetupHardware
	.type	SetupHardware, @function
SetupHardware:
.LFB90:
	.file 3 "Arduino-usbserial.c"
	.loc 3 140 1 is_stmt 1 view -0
	.cfi_startproc
/* prologue: function */
/* frame size = 0 */
/* stack size = 0 */
.L__stack_usage = 0
	.loc 3 142 2 view .LVU29
	.loc 3 142 8 is_stmt 0 view .LVU30
	in r24,0x34
	andi r24,lo8(-9)
	out 0x34,r24
	.loc 3 143 2 is_stmt 1 view .LVU31
.LBB45:
.LBI45:
	.file 4 "/usr/local/Cellar/avr-gcc@9/9.4.0/avr/include/avr/wdt.h"
	.loc 4 447 6 view .LVU32
.LBE45:
	.loc 4 449 2 view .LVU33
.LBB47:
.LBB46:
	.loc 4 469 9 view .LVU34
	.loc 4 470 3 view .LVU35
/* #APP */
 ;  470 "/usr/local/Cellar/avr-gcc@9/9.4.0/avr/include/avr/wdt.h" 1
	in __tmp_reg__,__SREG__
	cli
	wdr
	lds r24,96
	ori r24,24
	sts 96,r24
	sts 96,__zero_reg__
	out __SREG__,__tmp_reg__
	
 ;  0 "" 2
/* #NOAPP */
.LBE46:
.LBE47:
	.loc 3 146 2 view .LVU36
.LBB48:
.LBI48:
	.file 5 "../../LUFA/Drivers/Peripheral/Serial.h"
	.loc 5 99 23 view .LVU37
.LVL7:
.LBB49:
	.loc 5 102 5 view .LVU38
	.loc 5 102 12 is_stmt 0 view .LVU39
	ldi r24,lo8(103)
	ldi r25,0
	sts 204+1,r25
	sts 204,r24
	.loc 5 104 5 is_stmt 1 view .LVU40
	.loc 5 104 12 is_stmt 0 view .LVU41
	ldi r24,lo8(6)
	sts 202,r24
	.loc 5 105 5 is_stmt 1 view .LVU42
	.loc 5 105 12 is_stmt 0 view .LVU43
	sts 200,__zero_reg__
	.loc 5 106 5 is_stmt 1 view .LVU44
	.loc 5 106 12 is_stmt 0 view .LVU45
	ldi r24,lo8(24)
	sts 201,r24
	.loc 5 108 5 is_stmt 1 view .LVU46
	.loc 5 108 11 is_stmt 0 view .LVU47
	sbi 0xa,3
	.loc 5 109 5 is_stmt 1 view .LVU48
	.loc 5 109 11 is_stmt 0 view .LVU49
	sbi 0xb,2
.LVL8:
	.loc 5 109 11 view .LVU50
.LBE49:
.LBE48:
	.loc 3 147 2 is_stmt 1 view .LVU51
.LBB50:
.LBI50:
	.file 6 "./Board/LEDs.h"
	.loc 6 67 23 view .LVU52
.LBB51:
	.loc 6 69 5 view .LVU53
	.loc 6 69 11 is_stmt 0 view .LVU54
	in r24,0xa
	ori r24,lo8(48)
	out 0xa,r24
	.loc 6 70 5 is_stmt 1 view .LVU55
	.loc 6 70 11 is_stmt 0 view .LVU56
	in r24,0xb
	ori r24,lo8(48)
	out 0xb,r24
.LBE51:
.LBE50:
	.loc 3 148 2 is_stmt 1 view .LVU57
	call USB_Init
.LVL9:
	.loc 3 151 2 view .LVU58
	.loc 3 151 9 is_stmt 0 view .LVU59
	ldi r24,lo8(4)
	out 0x25,r24
	.loc 3 154 2 is_stmt 1 view .LVU60
	.loc 3 154 22 is_stmt 0 view .LVU61
	sbi 0xb,7
	.loc 3 155 2 is_stmt 1 view .LVU62
	.loc 3 155 22 is_stmt 0 view .LVU63
	sbi 0xa,7
/* epilogue start */
	.loc 3 156 1 view .LVU64
	ret
	.cfi_endproc
.LFE90:
	.size	SetupHardware, .-SetupHardware
	.section	.text.startup.main,"ax",@progbits
.global	main
	.type	main, @function
main:
.LFB89:
	.loc 3 81 1 is_stmt 1 view -0
	.cfi_startproc
/* prologue: function */
/* frame size = 0 */
/* stack size = 0 */
.L__stack_usage = 0
	.loc 3 82 2 view .LVU66
	call SetupHardware
.LVL10:
	.loc 3 84 2 view .LVU67
.LBB110:
.LBI110:
	.loc 1 85 22 view .LVU68
.LBE110:
	.loc 1 87 4 view .LVU69
.LBB116:
.LBB111:
	.loc 1 87 4 view .LVU70
	in r18,__SREG__
.LVL11:
.LBB112:
.LBI112:
	.loc 2 48 27 view .LVU71
.LBB113:
	.loc 2 50 5 view .LVU72
/* #APP */
 ;  50 "/usr/local/Cellar/avr-gcc@9/9.4.0/avr/include/util/atomic.h" 1
	cli
 ;  0 "" 2
	.loc 2 51 5 view .LVU73
.LVL12:
	.loc 2 51 5 is_stmt 0 view .LVU74
/* #NOAPP */
.LBE113:
.LBE112:
	.loc 1 87 4 is_stmt 1 view .LVU75
	.loc 1 89 5 view .LVU76
	.loc 1 89 17 is_stmt 0 view .LVU77
	ldi r24,lo8(USBtoUSART_Buffer)
	ldi r25,hi8(USBtoUSART_Buffer)
	sts USBtoUSART_Buffer+128+1,r25
	sts USBtoUSART_Buffer+128,r24
	.loc 1 90 5 is_stmt 1 view .LVU78
	.loc 1 90 17 is_stmt 0 view .LVU79
	sts USBtoUSART_Buffer+130+1,r25
	sts USBtoUSART_Buffer+130,r24
	.loc 1 87 4 is_stmt 1 view .LVU80
.LVL13:
	.loc 1 87 4 view .LVU81
.LBB114:
.LBI114:
	.loc 2 68 24 view .LVU82
.LBB115:
	.loc 2 70 5 view .LVU83
	.loc 2 70 10 is_stmt 0 view .LVU84
	out __SREG__,r18
	.loc 2 71 5 is_stmt 1 view .LVU85
.LVL14:
	.loc 2 71 5 is_stmt 0 view .LVU86
.LBE115:
.LBE114:
.LBE111:
.LBE116:
	.loc 3 85 2 is_stmt 1 view .LVU87
.LBB117:
.LBI117:
	.loc 1 85 22 view .LVU88
.LBE117:
	.loc 1 87 4 view .LVU89
.LBB123:
.LBB118:
	.loc 1 87 4 view .LVU90
	in r18,__SREG__
.LVL15:
.LBB119:
.LBI119:
	.loc 2 48 27 view .LVU91
.LBB120:
	.loc 2 50 5 view .LVU92
/* #APP */
 ;  50 "/usr/local/Cellar/avr-gcc@9/9.4.0/avr/include/util/atomic.h" 1
	cli
 ;  0 "" 2
	.loc 2 51 5 view .LVU93
.LVL16:
	.loc 2 51 5 is_stmt 0 view .LVU94
/* #NOAPP */
.LBE120:
.LBE119:
	.loc 1 87 4 is_stmt 1 view .LVU95
	.loc 1 89 5 view .LVU96
	.loc 1 89 17 is_stmt 0 view .LVU97
	ldi r24,lo8(USARTtoUSB_Buffer)
	ldi r25,hi8(USARTtoUSB_Buffer)
	sts USARTtoUSB_Buffer+128+1,r25
	sts USARTtoUSB_Buffer+128,r24
	.loc 1 90 5 is_stmt 1 view .LVU98
	.loc 1 90 17 is_stmt 0 view .LVU99
	sts USARTtoUSB_Buffer+130+1,r25
	sts USARTtoUSB_Buffer+130,r24
	.loc 1 87 4 is_stmt 1 view .LVU100
.LVL17:
	.loc 1 87 4 view .LVU101
.LBB121:
.LBI121:
	.loc 2 68 24 view .LVU102
.LBB122:
	.loc 2 70 5 view .LVU103
	.loc 2 70 10 is_stmt 0 view .LVU104
	out __SREG__,r18
	.loc 2 71 5 is_stmt 1 view .LVU105
.LVL18:
	.loc 2 71 5 is_stmt 0 view .LVU106
.LBE122:
.LBE121:
.LBE118:
.LBE123:
	.loc 3 87 2 is_stmt 1 view .LVU107
/* #APP */
 ;  87 "Arduino-usbserial.c" 1
	sei
 ;  0 "" 2
/* #NOAPP */
.LBB124:
.LBB125:
.LBB126:
.LBB127:
.LBB128:
	.loc 1 113 11 is_stmt 0 view .LVU108
	ldi r16,lo8(USBtoUSART_Buffer)
	ldi r17,hi8(USBtoUSART_Buffer)
.LBE128:
.LBE127:
.LBE126:
.LBE125:
	.loc 3 109 33 view .LVU109
	ldi r29,lo8(3)
.LVL19:
.L22:
	.loc 3 109 33 view .LVU110
.LBE124:
	.loc 3 89 2 is_stmt 1 view .LVU111
.LBB177:
	.loc 3 92 3 view .LVU112
.LBB136:
.LBI125:
	.loc 1 127 22 view .LVU113
	.loc 1 127 22 is_stmt 0 view .LVU114
.LBE136:
.LBE177:
	.loc 1 129 4 is_stmt 1 view .LVU115
.LBB178:
.LBB137:
.LBB135:
.LBI126:
	.loc 1 107 34 view .LVU116
.LBB134:
	.loc 1 109 4 view .LVU117
	.loc 1 111 4 view .LVU118
.LBB133:
	.loc 1 111 4 view .LVU119
	in r25,__SREG__
.LVL20:
.LBB129:
.LBI129:
	.loc 2 48 27 view .LVU120
.LBB130:
	.loc 2 50 5 view .LVU121
/* #APP */
 ;  50 "/usr/local/Cellar/avr-gcc@9/9.4.0/avr/include/util/atomic.h" 1
	cli
 ;  0 "" 2
	.loc 2 51 5 view .LVU122
.LVL21:
	.loc 2 51 5 is_stmt 0 view .LVU123
/* #NOAPP */
.LBE130:
.LBE129:
	.loc 1 111 4 is_stmt 1 view .LVU124
	.loc 1 113 5 view .LVU125
	.loc 1 113 11 is_stmt 0 view .LVU126
	lds r24,USBtoUSART_Buffer+132
.LVL22:
	.loc 1 111 4 is_stmt 1 view .LVU127
	.loc 1 111 4 view .LVU128
.LBB131:
.LBI131:
	.loc 2 68 24 view .LVU129
.LBB132:
	.loc 2 70 5 view .LVU130
	.loc 2 70 10 is_stmt 0 view .LVU131
	out __SREG__,r25
	.loc 2 71 5 is_stmt 1 view .LVU132
.LVL23:
	.loc 2 71 5 is_stmt 0 view .LVU133
.LBE132:
.LBE131:
.LBE133:
	.loc 1 116 4 is_stmt 1 view .LVU134
	.loc 1 116 4 is_stmt 0 view .LVU135
.LBE134:
.LBE135:
.LBE137:
	.loc 3 92 6 view .LVU136
	cpi r24,lo8(-128)
	breq .L7
.LBB138:
	.loc 3 94 4 is_stmt 1 view .LVU137
	.loc 3 94 27 is_stmt 0 view .LVU138
	ldi r24,lo8(VirtualSerial_CDC_Interface)
	ldi r25,hi8(VirtualSerial_CDC_Interface)
	call CDC_Device_ReceiveByte
.LVL24:
	.loc 3 97 4 is_stmt 1 view .LVU139
	.loc 3 97 7 is_stmt 0 view .LVU140
	sbrc r25,7
	rjmp .L7
	.loc 3 98 6 is_stmt 1 view .LVU141
.LVL25:
.LBB139:
.LBI139:
	.loc 1 158 22 view .LVU142
.LBB140:
	.loc 1 161 4 view .LVU143
	.loc 1 161 11 is_stmt 0 view .LVU144
	lds r30,USBtoUSART_Buffer+128
	lds r31,USBtoUSART_Buffer+128+1
.LBE140:
.LBE139:
	.loc 3 98 6 view .LVU145
	st Z,r24
.LBB148:
.LBB146:
	.loc 1 163 4 is_stmt 1 view .LVU146
	.loc 1 163 8 is_stmt 0 view .LVU147
	lds r24,USBtoUSART_Buffer+128
	lds r25,USBtoUSART_Buffer+128+1
.LVL26:
	.loc 1 163 8 view .LVU148
	movw r18,r24
	subi r18,-1
	sbci r19,-1
	.loc 1 163 7 view .LVU149
	subi r24,lo8(USBtoUSART_Buffer+127)
	sbci r25,hi8(USBtoUSART_Buffer+127)
	brne .+2
	rjmp .L9
	sts USBtoUSART_Buffer+128+1,r19
	sts USBtoUSART_Buffer+128,r18
.L10:
	.loc 1 166 4 is_stmt 1 view .LVU150
.LBB141:
	.loc 1 166 4 view .LVU151
	in r25,__SREG__
.LVL27:
.LBB142:
.LBI142:
	.loc 2 48 27 view .LVU152
.LBB143:
	.loc 2 50 5 view .LVU153
/* #APP */
 ;  50 "/usr/local/Cellar/avr-gcc@9/9.4.0/avr/include/util/atomic.h" 1
	cli
 ;  0 "" 2
	.loc 2 51 5 view .LVU154
.LVL28:
	.loc 2 51 5 is_stmt 0 view .LVU155
/* #NOAPP */
.LBE143:
.LBE142:
	.loc 1 166 4 is_stmt 1 view .LVU156
	.loc 1 168 5 view .LVU157
	.loc 1 168 18 is_stmt 0 view .LVU158
	lds r24,USBtoUSART_Buffer+132
	subi r24,lo8(-(1))
	sts USBtoUSART_Buffer+132,r24
	.loc 1 166 4 is_stmt 1 view .LVU159
.LVL29:
	.loc 1 166 4 view .LVU160
.LBB144:
.LBI144:
	.loc 2 68 24 view .LVU161
.LBB145:
	.loc 2 70 5 view .LVU162
	.loc 2 70 10 is_stmt 0 view .LVU163
	out __SREG__,r25
	.loc 2 71 5 is_stmt 1 view .LVU164
.LVL30:
.L7:
	.loc 2 71 5 is_stmt 0 view .LVU165
.LBE145:
.LBE144:
.LBE141:
.LBE146:
.LBE148:
.LBE138:
	.loc 3 102 3 is_stmt 1 view .LVU166
.LBB150:
.LBI150:
	.loc 1 107 34 view .LVU167
.LBB151:
	.loc 1 109 4 view .LVU168
	.loc 1 111 4 view .LVU169
.LBB152:
	.loc 1 111 4 view .LVU170
	in r24,__SREG__
.LVL31:
.LBB153:
.LBI153:
	.loc 2 48 27 view .LVU171
.LBB154:
	.loc 2 50 5 view .LVU172
/* #APP */
 ;  50 "/usr/local/Cellar/avr-gcc@9/9.4.0/avr/include/util/atomic.h" 1
	cli
 ;  0 "" 2
	.loc 2 51 5 view .LVU173
.LVL32:
	.loc 2 51 5 is_stmt 0 view .LVU174
/* #NOAPP */
.LBE154:
.LBE153:
	.loc 1 111 4 is_stmt 1 view .LVU175
	.loc 1 113 5 view .LVU176
	.loc 1 113 11 is_stmt 0 view .LVU177
	lds r28,USARTtoUSB_Buffer+132
.LVL33:
	.loc 1 111 4 is_stmt 1 view .LVU178
	.loc 1 111 4 view .LVU179
.LBB155:
.LBI155:
	.loc 2 68 24 view .LVU180
.LBB156:
	.loc 2 70 5 view .LVU181
	.loc 2 70 10 is_stmt 0 view .LVU182
	out __SREG__,r24
	.loc 2 71 5 is_stmt 1 view .LVU183
.LVL34:
	.loc 2 71 5 is_stmt 0 view .LVU184
.LBE156:
.LBE155:
.LBE152:
	.loc 1 116 4 is_stmt 1 view .LVU185
	.loc 1 116 4 is_stmt 0 view .LVU186
.LBE151:
.LBE150:
	.loc 3 103 3 is_stmt 1 view .LVU187
	.loc 3 103 6 is_stmt 0 view .LVU188
	sbic 0x15,0
	rjmp .L11
	.loc 3 103 29 discriminator 1 view .LVU189
	cpi r28,lo8(97)
	brlo .L12
.L11:
	.loc 3 105 4 is_stmt 1 view .LVU190
	.loc 3 105 10 is_stmt 0 view .LVU191
	sbi 0x15,0
	.loc 3 107 4 is_stmt 1 view .LVU192
	.loc 3 107 7 is_stmt 0 view .LVU193
	lds r24,USARTtoUSB_Buffer+132
	tst r24
	breq .L14
	.loc 3 108 5 is_stmt 1 view .LVU194
.LVL35:
.LBB157:
.LBI157:
	.loc 6 73 23 view .LVU195
.LBB158:
	.loc 6 75 5 view .LVU196
	.loc 6 75 11 is_stmt 0 view .LVU197
	cbi 0xb,5
.LVL36:
	.loc 6 75 11 view .LVU198
.LBE158:
.LBE157:
	.loc 3 109 5 is_stmt 1 view .LVU199
	.loc 3 109 33 is_stmt 0 view .LVU200
	sts PulseMSRemaining,r29
.L14:
	.loc 3 113 10 is_stmt 1 view .LVU201
	.loc 3 113 22 is_stmt 0 view .LVU202
.LVL37:
	subi r28,1
	brcc .L15
	.loc 3 117 4 is_stmt 1 view .LVU203
	.loc 3 117 24 is_stmt 0 view .LVU204
	lds r24,PulseMSRemaining
	.loc 3 117 7 view .LVU205
	tst r24
	breq .L17
	.loc 3 117 59 discriminator 1 view .LVU206
	lds r24,PulseMSRemaining
	.loc 3 117 41 discriminator 1 view .LVU207
	subi r24,lo8(-(-1))
	.loc 3 117 36 discriminator 1 view .LVU208
	sts PulseMSRemaining,r24
	cpse r24,__zero_reg__
	rjmp .L17
	.loc 3 118 6 is_stmt 1 view .LVU209
.LVL38:
.LBB159:
.LBI159:
	.loc 6 78 23 view .LVU210
.LBB160:
	.loc 6 80 5 view .LVU211
	.loc 6 80 11 is_stmt 0 view .LVU212
	sbi 0xb,5
.LVL39:
.L17:
	.loc 6 80 11 view .LVU213
.LBE160:
.LBE159:
	.loc 3 121 4 is_stmt 1 view .LVU214
	.loc 3 121 24 is_stmt 0 view .LVU215
	lds r24,PulseMSRemaining+1
	.loc 3 121 7 view .LVU216
	tst r24
	breq .L12
	.loc 3 121 59 discriminator 1 view .LVU217
	lds r24,PulseMSRemaining+1
	.loc 3 121 41 discriminator 1 view .LVU218
	subi r24,lo8(-(-1))
	.loc 3 121 36 discriminator 1 view .LVU219
	sts PulseMSRemaining+1,r24
	cpse r24,__zero_reg__
	rjmp .L12
	.loc 3 122 6 is_stmt 1 view .LVU220
.LVL40:
.LBB161:
.LBI161:
	.loc 6 78 23 view .LVU221
.LBB162:
	.loc 6 80 5 view .LVU222
	.loc 6 80 11 is_stmt 0 view .LVU223
	sbi 0xb,4
.LVL41:
.L12:
	.loc 6 80 11 view .LVU224
.LBE162:
.LBE161:
	.loc 3 126 3 is_stmt 1 view .LVU225
.LBB163:
.LBI163:
	.loc 1 144 22 view .LVU226
	.loc 1 144 22 is_stmt 0 view .LVU227
.LBE163:
.LBE178:
	.loc 1 146 4 is_stmt 1 view .LVU228
.LBB179:
.LBB171:
.LBB164:
.LBI164:
	.loc 1 107 34 view .LVU229
.LBB165:
	.loc 1 109 4 view .LVU230
	.loc 1 111 4 view .LVU231
.LBB166:
	.loc 1 111 4 view .LVU232
	in r25,__SREG__
.LVL42:
.LBB167:
.LBI167:
	.loc 2 48 27 view .LVU233
.LBB168:
	.loc 2 50 5 view .LVU234
/* #APP */
 ;  50 "/usr/local/Cellar/avr-gcc@9/9.4.0/avr/include/util/atomic.h" 1
	cli
 ;  0 "" 2
	.loc 2 51 5 view .LVU235
.LVL43:
	.loc 2 51 5 is_stmt 0 view .LVU236
/* #NOAPP */
.LBE168:
.LBE167:
	.loc 1 111 4 is_stmt 1 view .LVU237
	.loc 1 113 5 view .LVU238
	.loc 1 113 11 is_stmt 0 view .LVU239
	lds r24,USBtoUSART_Buffer+132
.LVL44:
	.loc 1 111 4 is_stmt 1 view .LVU240
	.loc 1 111 4 view .LVU241
.LBB169:
.LBI169:
	.loc 2 68 24 view .LVU242
.LBB170:
	.loc 2 70 5 view .LVU243
	.loc 2 70 10 is_stmt 0 view .LVU244
	out __SREG__,r25
	.loc 2 71 5 is_stmt 1 view .LVU245
.LVL45:
	.loc 2 71 5 is_stmt 0 view .LVU246
.LBE170:
.LBE169:
.LBE166:
	.loc 1 116 4 is_stmt 1 view .LVU247
	.loc 1 116 4 is_stmt 0 view .LVU248
.LBE165:
.LBE164:
.LBE171:
	.loc 3 126 6 view .LVU249
	tst r24
	breq .L20
	.loc 3 127 5 is_stmt 1 view .LVU250
	.loc 3 127 19 is_stmt 0 view .LVU251
	ldi r24,lo8(USBtoUSART_Buffer)
	ldi r25,hi8(USBtoUSART_Buffer)
	call RingBuffer_Remove
.LVL46:
.LBB172:
.LBI172:
	.loc 5 140 23 is_stmt 1 view .LVU252
.LBB173:
	.loc 5 142 5 view .LVU253
.L21:
	.loc 5 142 37 view .LVU254
	.loc 5 142 11 view .LVU255
	.loc 5 142 14 is_stmt 0 view .LVU256
	lds r25,200
	.loc 5 142 11 view .LVU257
	sbrs r25,5
	rjmp .L21
	.loc 5 143 5 is_stmt 1 view .LVU258
	.loc 5 143 10 is_stmt 0 view .LVU259
	sts 206,r24
.LVL47:
	.loc 5 143 10 view .LVU260
.LBE173:
.LBE172:
	.loc 3 129 6 is_stmt 1 view .LVU261
.LBB174:
.LBI174:
	.loc 6 73 23 view .LVU262
.LBB175:
	.loc 6 75 5 view .LVU263
	.loc 6 75 11 is_stmt 0 view .LVU264
	cbi 0xb,4
.LVL48:
	.loc 6 75 11 view .LVU265
.LBE175:
.LBE174:
	.loc 3 130 4 is_stmt 1 view .LVU266
	.loc 3 130 32 is_stmt 0 view .LVU267
	sts PulseMSRemaining+1,r29
.L20:
	.loc 3 133 3 is_stmt 1 view .LVU268
	ldi r24,lo8(VirtualSerial_CDC_Interface)
	ldi r25,hi8(VirtualSerial_CDC_Interface)
	call CDC_Device_USBTask
.LVL49:
	.loc 3 134 3 view .LVU269
	call USB_USBTask
.LVL50:
.LBE179:
	.loc 3 89 8 view .LVU270
	.loc 3 90 2 is_stmt 0 view .LVU271
	rjmp .L22
.LVL51:
.L9:
.LBB180:
.LBB176:
.LBB149:
.LBB147:
	.loc 1 164 6 is_stmt 1 view .LVU272
	.loc 1 164 17 is_stmt 0 view .LVU273
	sts USBtoUSART_Buffer+128+1,r17
	sts USBtoUSART_Buffer+128,r16
	rjmp .L10
.LVL52:
.L15:
	.loc 1 164 17 view .LVU274
.LBE147:
.LBE149:
.LBE176:
	.loc 3 114 6 is_stmt 1 view .LVU275
	ldi r24,lo8(USARTtoUSB_Buffer)
	ldi r25,hi8(USARTtoUSB_Buffer)
	call RingBuffer_Remove
.LVL53:
	mov r22,r24
	ldi r24,lo8(VirtualSerial_CDC_Interface)
	ldi r25,hi8(VirtualSerial_CDC_Interface)
	call CDC_Device_SendByte
.LVL54:
	rjmp .L14
.LBE180:
	.cfi_endproc
.LFE89:
	.size	main, .-main
	.section	.text.EVENT_USB_Device_ConfigurationChanged,"ax",@progbits
.global	EVENT_USB_Device_ConfigurationChanged
	.type	EVENT_USB_Device_ConfigurationChanged, @function
EVENT_USB_Device_ConfigurationChanged:
.LFB91:
	.loc 3 160 1 view -0
	.cfi_startproc
/* prologue: function */
/* frame size = 0 */
/* stack size = 0 */
.L__stack_usage = 0
	.loc 3 161 2 view .LVU277
	ldi r24,lo8(VirtualSerial_CDC_Interface)
	ldi r25,hi8(VirtualSerial_CDC_Interface)
	jmp CDC_Device_ConfigureEndpoints
.LVL55:
	.cfi_endproc
.LFE91:
	.size	EVENT_USB_Device_ConfigurationChanged, .-EVENT_USB_Device_ConfigurationChanged
	.section	.text.EVENT_USB_Device_UnhandledControlRequest,"ax",@progbits
.global	EVENT_USB_Device_UnhandledControlRequest
	.type	EVENT_USB_Device_UnhandledControlRequest, @function
EVENT_USB_Device_UnhandledControlRequest:
.LFB92:
	.loc 3 166 1 view -0
	.cfi_startproc
/* prologue: function */
/* frame size = 0 */
/* stack size = 0 */
.L__stack_usage = 0
	.loc 3 167 2 view .LVU279
	ldi r24,lo8(VirtualSerial_CDC_Interface)
	ldi r25,hi8(VirtualSerial_CDC_Interface)
	jmp CDC_Device_ProcessControlRequest
.LVL56:
	.cfi_endproc
.LFE92:
	.size	EVENT_USB_Device_UnhandledControlRequest, .-EVENT_USB_Device_UnhandledControlRequest
	.section	.text.EVENT_CDC_Device_LineEncodingChanged,"ax",@progbits
.global	EVENT_CDC_Device_LineEncodingChanged
	.type	EVENT_CDC_Device_LineEncodingChanged, @function
EVENT_CDC_Device_LineEncodingChanged:
.LVL57:
.LFB93:
	.loc 3 175 1 view -0
	.cfi_startproc
	.loc 3 175 1 is_stmt 0 view .LVU281
	push r8
.LCFI0:
	.cfi_def_cfa_offset 3
	.cfi_offset 8, -2
	push r9
.LCFI1:
	.cfi_def_cfa_offset 4
	.cfi_offset 9, -3
	push r10
.LCFI2:
	.cfi_def_cfa_offset 5
	.cfi_offset 10, -4
	push r11
.LCFI3:
	.cfi_def_cfa_offset 6
	.cfi_offset 11, -5
	push r15
.LCFI4:
	.cfi_def_cfa_offset 7
	.cfi_offset 15, -6
	push r16
.LCFI5:
	.cfi_def_cfa_offset 8
	.cfi_offset 16, -7
	push r17
.LCFI6:
	.cfi_def_cfa_offset 9
	.cfi_offset 17, -8
	push r28
.LCFI7:
	.cfi_def_cfa_offset 10
	.cfi_offset 28, -9
	push r29
.LCFI8:
	.cfi_def_cfa_offset 11
	.cfi_offset 29, -10
	rcall .
	rcall .
	push __tmp_reg__
.LCFI9:
	.cfi_def_cfa_offset 16
	in r28,__SP_L__
	in r29,__SP_H__
.LCFI10:
	.cfi_def_cfa_register 28
/* prologue: function */
/* frame size = 5 */
/* stack size = 14 */
.L__stack_usage = 14
	movw r16,r24
	.loc 3 176 2 is_stmt 1 view .LVU282
.LVL58:
	.loc 3 178 2 view .LVU283
	.loc 3 178 46 is_stmt 0 view .LVU284
	movw r26,r24
	adiw r26,20
	ld r24,X
.LVL59:
	.loc 3 178 2 view .LVU285
	ldi r25,lo8(48)
	mov r15,r25
	cpi r24,lo8(1)
	breq .L37
	.loc 3 184 15 view .LVU286
	ldi r18,lo8(32)
	mov r15,r18
	.loc 3 178 2 view .LVU287
	cpi r24,lo8(2)
	breq .L37
	.loc 3 176 10 view .LVU288
	mov r15,__zero_reg__
.L37:
.LVL60:
	.loc 3 188 2 is_stmt 1 view .LVU289
	.loc 3 188 5 is_stmt 0 view .LVU290
	movw r30,r16
	ldd r24,Z+19
	cpi r24,lo8(2)
	brne .L38
	.loc 3 189 4 is_stmt 1 view .LVU291
	.loc 3 189 15 is_stmt 0 view .LVU292
	set
	bld r15,3
.LVL61:
.L38:
	.loc 3 191 2 is_stmt 1 view .LVU293
	.loc 3 191 46 is_stmt 0 view .LVU294
	movw r26,r16
	adiw r26,21
	ld r24,X
	.loc 3 191 2 view .LVU295
	cpi r24,lo8(7)
	brne .+2
	rjmp .L39
	.loc 3 191 2 view .LVU296
	cpi r24,lo8(8)
	brne .+2
	rjmp .L40
	cpi r24,lo8(6)
	brne .L41
	.loc 3 194 4 is_stmt 1 view .LVU297
	.loc 3 194 15 is_stmt 0 view .LVU298
	set
	bld r15,1
.LVL62:
	.loc 3 195 4 is_stmt 1 view .LVU299
.L41:
	.loc 3 205 2 view .LVU300
	.loc 3 205 9 is_stmt 0 view .LVU301
	sts 201,__zero_reg__
	.loc 3 206 2 is_stmt 1 view .LVU302
	.loc 3 206 9 is_stmt 0 view .LVU303
	sts 200,__zero_reg__
	.loc 3 207 2 is_stmt 1 view .LVU304
	.loc 3 207 9 is_stmt 0 view .LVU305
	sts 202,__zero_reg__
	.loc 3 210 2 is_stmt 1 view .LVU306
	.loc 3 210 48 is_stmt 0 view .LVU307
	movw r30,r16
	ldd r18,Z+15
	ldd r19,Z+16
	ldd r20,Z+17
	ldd r21,Z+18
	.loc 3 210 9 view .LVU308
	cp r18,__zero_reg__
	ldi r31,-31
	cpc r19,r31
	cpc r20,__zero_reg__
	cpc r21,__zero_reg__
	brne .+2
	rjmp .L46
	.loc 3 212 7 discriminator 2 view .LVU309
	movw r8,r18
	movw r10,r20
	lsr r11
	ror r10
	ror r9
	ror r8
	movw r26,r10
	movw r24,r8
	subi r24,-128
	sbci r25,123
	sbci r26,-31
	sbci r27,-1
	std Y+1,r24
	std Y+2,r25
	std Y+3,r26
	std Y+4,r27
	movw r22,r24
	movw r24,r26
	call __udivmodsi4
	.loc 3 210 9 discriminator 2 view .LVU310
	subi r18,1
	sbc r19,__zero_reg__
.L42:
	.loc 3 210 9 discriminator 4 view .LVU311
	sts 204+1,r19
	sts 204,r18
	.loc 3 214 2 is_stmt 1 discriminator 4 view .LVU312
	.loc 3 214 9 is_stmt 0 discriminator 4 view .LVU313
	sts 202,r15
	.loc 3 215 2 is_stmt 1 discriminator 4 view .LVU314
	.loc 3 215 9 is_stmt 0 discriminator 4 view .LVU315
	movw r30,r16
	ldd r24,Z+15
	ldd r25,Z+16
	ldd r26,Z+17
	ldd r27,Z+18
	cp r24,__zero_reg__
	sbci r25,-31
	cpc r26,__zero_reg__
	cpc r27,__zero_reg__
	breq .L47
	.loc 3 215 9 view .LVU316
	ldi r24,lo8(2)
.L43:
	.loc 3 215 9 discriminator 4 view .LVU317
	sts 200,r24
	.loc 3 216 2 is_stmt 1 discriminator 4 view .LVU318
	.loc 3 216 9 is_stmt 0 discriminator 4 view .LVU319
	ldi r24,lo8(-104)
	sts 201,r24
/* epilogue start */
	.loc 3 217 1 discriminator 4 view .LVU320
	pop __tmp_reg__
	pop __tmp_reg__
	pop __tmp_reg__
	pop __tmp_reg__
	pop __tmp_reg__
	pop r29
	pop r28
	pop r17
	pop r16
.LVL63:
	.loc 3 217 1 discriminator 4 view .LVU321
	pop r15
.LVL64:
	.loc 3 217 1 discriminator 4 view .LVU322
	pop r11
	pop r10
	pop r9
	pop r8
	ret
.LVL65:
.L39:
	.loc 3 197 4 is_stmt 1 view .LVU323
	.loc 3 197 15 is_stmt 0 view .LVU324
	set
	bld r15,2
.LVL66:
	.loc 3 198 4 is_stmt 1 view .LVU325
	rjmp .L41
.L40:
	.loc 3 200 4 view .LVU326
	.loc 3 200 15 is_stmt 0 view .LVU327
	mov r27,r15
	ori r27,lo8(6)
	mov r15,r27
.LVL67:
	.loc 3 201 4 is_stmt 1 view .LVU328
	rjmp .L41
.L46:
	.loc 3 210 9 is_stmt 0 view .LVU329
	ldi r18,lo8(16)
	ldi r19,0
	rjmp .L42
.L47:
	.loc 3 215 9 view .LVU330
	ldi r24,0
	rjmp .L43
	.cfi_endproc
.LFE93:
	.size	EVENT_CDC_Device_LineEncodingChanged, .-EVENT_CDC_Device_LineEncodingChanged
	.section	.text.__vector_23,"ax",@progbits
.global	__vector_23
	.type	__vector_23, @function
__vector_23:
.LFB94:
	.loc 3 223 1 is_stmt 1 view -0
	.cfi_startproc
	__gcc_isr 1
	push r24
.LCFI11:
	.cfi_def_cfa_offset 3
	.cfi_offset 24, -2
	push r25
.LCFI12:
	.cfi_def_cfa_offset 4
	.cfi_offset 25, -3
	push r30
.LCFI13:
	.cfi_def_cfa_offset 5
	.cfi_offset 30, -4
	push r31
.LCFI14:
	.cfi_def_cfa_offset 6
	.cfi_offset 31, -5
/* prologue: Signal */
/* frame size = 0 */
/* stack size = 4...8 */
.L__stack_usage = 4 + __gcc_isr.n_pushed
	.loc 3 224 2 view .LVU332
	.loc 3 224 10 is_stmt 0 view .LVU333
	lds r24,206
.LVL68:
	.loc 3 226 2 is_stmt 1 view .LVU334
	.loc 3 226 6 is_stmt 0 view .LVU335
	in r25,0x1e
	.loc 3 226 5 view .LVU336
	cpi r25,lo8(4)
	brne .L48
	.loc 3 227 4 is_stmt 1 view .LVU337
.LVL69:
.LBB188:
.LBI188:
	.loc 1 158 22 view .LVU338
.LBB189:
	.loc 1 161 4 view .LVU339
	.loc 1 161 11 is_stmt 0 view .LVU340
	lds r30,USARTtoUSB_Buffer+128
	lds r31,USARTtoUSB_Buffer+128+1
	.loc 1 161 16 view .LVU341
	st Z,r24
	.loc 1 163 4 is_stmt 1 view .LVU342
	.loc 1 163 8 is_stmt 0 view .LVU343
	lds r30,USARTtoUSB_Buffer+128
	lds r31,USARTtoUSB_Buffer+128+1
	movw r24,r30
.LVL70:
	.loc 1 163 8 view .LVU344
	adiw r24,1
	.loc 1 163 7 view .LVU345
	ldi r18,hi8(USARTtoUSB_Buffer+127)
	cpi r30,lo8(USARTtoUSB_Buffer+127)
	cpc r31,r18
	breq .L50
	sts USARTtoUSB_Buffer+128+1,r25
	sts USARTtoUSB_Buffer+128,r24
.L51:
	.loc 1 166 4 is_stmt 1 view .LVU346
.LBB190:
	.loc 1 166 4 view .LVU347
	in r25,__SREG__
.LVL71:
.LBB191:
.LBI191:
	.loc 2 48 27 view .LVU348
.LBB192:
	.loc 2 50 5 view .LVU349
/* #APP */
 ;  50 "/usr/local/Cellar/avr-gcc@9/9.4.0/avr/include/util/atomic.h" 1
	cli
 ;  0 "" 2
	.loc 2 51 5 view .LVU350
.LVL72:
	.loc 2 51 5 is_stmt 0 view .LVU351
/* #NOAPP */
.LBE192:
.LBE191:
	.loc 1 166 4 is_stmt 1 view .LVU352
	.loc 1 168 5 view .LVU353
	.loc 1 168 18 is_stmt 0 view .LVU354
	lds r24,USARTtoUSB_Buffer+132
	subi r24,lo8(-(1))
	sts USARTtoUSB_Buffer+132,r24
	.loc 1 166 4 is_stmt 1 view .LVU355
.LVL73:
	.loc 1 166 4 view .LVU356
.LBB193:
.LBI193:
	.loc 2 68 24 view .LVU357
.LBB194:
	.loc 2 70 5 view .LVU358
	.loc 2 70 10 is_stmt 0 view .LVU359
	out __SREG__,r25
	.loc 2 71 5 is_stmt 1 view .LVU360
.LVL74:
.L48:
/* epilogue start */
	.loc 2 71 5 is_stmt 0 view .LVU361
.LBE194:
.LBE193:
.LBE190:
.LBE189:
.LBE188:
	.loc 3 228 1 view .LVU362
	pop r31
	pop r30
	pop r25
	pop r24
	__gcc_isr 2
	reti
.LVL75:
.L50:
.LBB196:
.LBB195:
	.loc 1 164 6 is_stmt 1 view .LVU363
	.loc 1 164 17 is_stmt 0 view .LVU364
	ldi r24,lo8(USARTtoUSB_Buffer)
	ldi r25,hi8(USARTtoUSB_Buffer)
	std Z+2,r25
	std Z+1,r24
	.loc 1 164 17 view .LVU365
	rjmp .L51
	__gcc_isr 0,r18
.LBE195:
.LBE196:
	.cfi_endproc
.LFE94:
	.size	__vector_23, .-__vector_23
	.section	.text.EVENT_CDC_Device_ControLineStateChanged,"ax",@progbits
.global	EVENT_CDC_Device_ControLineStateChanged
	.type	EVENT_CDC_Device_ControLineStateChanged, @function
EVENT_CDC_Device_ControLineStateChanged:
.LVL76:
.LFB95:
	.loc 3 235 1 is_stmt 1 view -0
	.cfi_startproc
/* prologue: function */
/* frame size = 0 */
/* stack size = 0 */
.L__stack_usage = 0
	.loc 3 236 2 view .LVU367
	.loc 3 238 2 view .LVU368
	.loc 3 238 5 is_stmt 0 view .LVU369
	movw r30,r24
	ldd r24,Z+13
.LVL77:
	.loc 3 238 5 view .LVU370
	sbrs r24,0
	rjmp .L53
	.loc 3 239 4 is_stmt 1 view .LVU371
	.loc 3 239 24 is_stmt 0 view .LVU372
	cbi 0xb,7
	ret
.L53:
	.loc 3 241 4 is_stmt 1 view .LVU373
	.loc 3 241 24 is_stmt 0 view .LVU374
	sbi 0xb,7
/* epilogue start */
	.loc 3 242 1 view .LVU375
	ret
	.cfi_endproc
.LFE95:
	.size	EVENT_CDC_Device_ControLineStateChanged, .-EVENT_CDC_Device_ControLineStateChanged
.global	VirtualSerial_CDC_Interface
	.data
	.type	VirtualSerial_CDC_Interface, @object
	.size	VirtualSerial_CDC_Interface, 22
VirtualSerial_CDC_Interface:
	.byte	0
	.byte	3
	.word	64
	.byte	0
	.byte	4
	.word	64
	.byte	0
	.byte	2
	.word	8
	.byte	0
	.zero	9
	.comm	PulseMSRemaining,3,1
	.comm	USARTtoUSB_Buffer,133,1
	.comm	USBtoUSART_Buffer,133,1
	.text
.Letext0:
	.file 7 "/usr/local/Cellar/avr-gcc@9/9.4.0/avr/include/stdint.h"
	.file 8 "../../LUFA/Drivers/USB/HighLevel/../LowLevel/../HighLevel/StdRequestType.h"
	.file 9 "../../LUFA/Drivers/USB/HighLevel/../LowLevel/../HighLevel/DeviceStandardReq.h"
	.file 10 "../../LUFA/Drivers/USB/HighLevel/USBTask.h"
	.file 11 "../../LUFA/Drivers/USB/HighLevel/../LowLevel/Device.h"
	.file 12 "../../LUFA/Drivers/USB/Class/Device/../Common/CDC.h"
	.file 13 "/usr/local/Cellar/avr-gcc@9/9.4.0/avr/include/stdio.h"
	.file 14 "../../LUFA/Drivers/USB/Class/Device/CDC.h"
	.file 15 "../../LUFA/Drivers/USB/HighLevel/../LowLevel/USBController.h"